(dp0
S'avantika'
p1
(dp2
S'password'
p3
S'12345'
p4
sS'type'
p5
(dp6
S'project-unicon'
p7
(dp8
S'teammembers'
p9
(lp10
S'avantika'
p11
asS'likes'
p12
I4
sS'description'
p13
S'hey this is an awesome project !'
p14
sS'comments'
p15
(lp16
sS'author'
p17
S'avantika'
p18
ssssS'mukesh'
p19
(dp20
S'skillset'
p21
(lp22
S'php'
p23
aS'html'
p24
aS'css'
p25
aS'ruby'
p26
asS'password'
p27
S'12345'
p28
sS'type'
p29
(dp30
S'startup-manmade'
p31
(dp32
S'description'
p33
S'best startup'
p34
sS'ceo'
p35
S'me'
p36
sS'comments'
p37
(lp38
sS'skills'
p39
(lp40
S'php'
p41
aS'html'
p42
asS'likes'
p43
I0
sS'teammembers'
p44
(lp45
S'me'
p46
aS'raghav'
p47
assssS'root'
p48
(dp49
S'password'
p50
S'12345'
p51
sS'type'
p52
(dp53
S'project'
p54
(dp55
S'teammembers'
p56
(lp57
S'ram'
p58
aS'shyam'
p59
asS'likes'
p60
I1
sS'description'
p61
S'this is my project!'
p62
sS'comments'
p63
(lp64
S'Nice Project!'
p65
asS'author'
p66
g58
ssS'startup'
p67
(dp68
S'ceo'
p69
g58
sg61
S'this is my startup!'
p70
sg60
I0
sg63
(lp71
S'Nice Startup!'
p72
aS'heya is working very fine !! uhuuuu !! '
p73
asg56
(lp74
g58
ag59
assssS'rahul'
p75
(dp76
S'password'
p77
S'rahul123'
p78
sS'type'
p79
(dp80
ss.