(dp0
S'mukesh'
p1
(dp2
S'skillset'
p3
(lp4
S'php'
p5
aS'html'
p6
aS'css'
p7
aS'ruby'
p8
asS'password'
p9
S'12345'
p10
sS'type'
p11
(dp12
S'startup-manmade'
p13
(dp14
S'description'
p15
S'best startup'
p16
sS'ceo'
p17
S'me'
p18
sS'comments'
p19
(lp20
S'Nice project mukesh !'
p21
asS'skills'
p22
(lp23
S'php'
p24
aS'html'
p25
asS'likes'
p26
I1
sS'teammembers'
p27
(lp28
S'me'
p29
aS'raghav'
p30
assssS'avantika'
p31
(dp32
S'password'
p33
S'12345'
p34
sS'type'
p35
(dp36
S'project-unicon'
p37
(dp38
S'teammembers'
p39
(lp40
S'avantika'
p41
asS'likes'
p42
I4
sS'description'
p43
S'hey this is an awesome project !'
p44
sS'comments'
p45
(lp46
sS'author'
p47
S'avantika'
p48
ssssS'vijay'
p49
(dp50
S'batch'
p51
S'b2'
p52
sS'contactno'
p53
I987654321
sS'skillset'
p54
(lp55
S'python'
p56
aS'ruby'
p57
asS'year'
p58
I2
sS'password'
p59
S'vijay123'
p60
sS'type'
p61
(dp62
ssS'ajay'
p63
(dp64
S'batch'
p65
S'B1'
p66
sS'contactno'
p67
I9650995427
sS'skillset'
p68
(lp69
S'php'
p70
aS'python'
p71
asS'year'
p72
I1
sS'password'
p73
S'ajay123'
p74
sS'type'
p75
(dp76
ssS'root'
p77
(dp78
S'password'
p79
S'12345'
p80
sS'type'
p81
(dp82
S'project'
p83
(dp84
S'teammembers'
p85
(lp86
S'ram'
p87
aS'shyam'
p88
asS'likes'
p89
I1
sS'description'
p90
S'this is my project!'
p91
sS'comments'
p92
(lp93
S'Nice Project!'
p94
asS'author'
p95
g87
ssS'startup'
p96
(dp97
S'ceo'
p98
g87
sg90
S'this is my startup!'
p99
sg89
I0
sg92
(lp100
S'Nice Startup!'
p101
aS'heya is working very fine !! uhuuuu !! '
p102
asg85
(lp103
g87
ag88
assssS'rahul'
p104
(dp105
S'password'
p106
S'rahul123'
p107
sS'type'
p108
(dp109
ss.