(dp0
S'5'
p1
(dp2
S'password'
p3
g1
sS'type'
p4
(dp5
S'startupfun'
p6
(dp7
S'ceo'
p8
S'me'
p9
sS'likes'
p10
I0
sS'description'
p11
S'hello this is a very well startup'
p12
sS'comments'
p13
(lp14
sS'teammembers'
p15
(lp16
S'me'
p17
aS'mohan'
p18
aS'shyam'
p19
assS'5'
p20
(dp21
S'description'
p22
g20
sS'author'
p23
g20
sS'likes'
p24
I0
sS'comments'
p25
(lp26
sS'teammembers'
p27
(lp28
g20
assssS'root'
p29
(dp30
g3
S'12345'
p31
sg4
(dp32
S'project'
p33
(dp34
S'teammembers'
p35
(lp36
S'ram'
p37
aS'shyam'
p38
asS'likes'
p39
I0
sS'description'
p40
S'this is my project!'
p41
sS'comments'
p42
(lp43
S'Nice Project!'
p44
asS'author'
p45
g37
ssS'startup'
p46
(dp47
S'ceo'
p48
g37
sg39
I0
sg40
S'this is my startup!'
p49
sg42
(lp50
S'Nice Startup!'
p51
asg35
(lp52
g37
ag38
assssS'4'
p53
(dp54
S'password'
p55
g53
sS'type'
p56
(dp57
S'4'
p58
(dp59
S'description'
p60
g58
sS'author'
p61
g58
sS'likes'
p62
I0
sS'comments'
p63
(lp64
sS'teammembers'
p65
(lp66
g58
assss.