(dp0
S'avantika'
p1
(dp2
S'password'
p3
S'12345'
p4
sS'type'
p5
(dp6
S'project-unicon'
p7
(dp8
S'teammembers'
p9
(lp10
S'avantika'
p11
asS'likes'
p12
I2
sS'description'
p13
S'hey this is an awesome project !'
p14
sS'comments'
p15
(lp16
sS'author'
p17
S'avantika'
p18
ssssS'root'
p19
(dp20
S'password'
p21
S'12345'
p22
sS'type'
p23
(dp24
S'project'
p25
(dp26
S'teammembers'
p27
(lp28
S'ram'
p29
aS'shyam'
p30
asS'likes'
p31
I1
sS'description'
p32
S'this is my project!'
p33
sS'comments'
p34
(lp35
S'Nice Project!'
p36
asS'author'
p37
g29
ssS'startup'
p38
(dp39
S'ceo'
p40
g29
sg31
I0
sg32
S'this is my startup!'
p41
sg34
(lp42
S'Nice Startup!'
p43
aS'heya is working very fine !! uhuuuu !! '
p44
asg27
(lp45
g29
ag30
assss.