(dp0
S'5'
p1
(dp2
S'password'
p3
S'5'
p4
sS'type'
p5
(dp6
S'startupfun'
p7
(dp8
S'ceo'
p9
S'me'
p10
sS'description'
p11
S'hello this is a very well startup'
p12
sS'likes'
p13
I0
sS'comments'
p14
(lp15
sS'teammembers'
p16
(lp17
S'me'
p18
aS'mohan'
p19
aS'shyam'
p20
assS'5'
p21
(dp22
S'description'
p23
g21
sS'author'
p24
g21
sS'likes'
p25
I0
sS'comments'
p26
(lp27
sS'teammembers'
p28
(lp29
g21
assssS'root'
p30
(dp31
g3
S'12345'
p32
sg5
(dp33
S'project'
p34
(dp35
S'teammembers'
p36
(lp37
S'ram'
p38
aS'shyam'
p39
asS'likes'
p40
I3
sS'description'
p41
S'this is my project!'
p42
sS'comments'
p43
(lp44
S'Nice Project!'
p45
aS'yo yo'
p46
aS'yoblo'
p47
asS'author'
p48
g38
ssS'startup'
p49
(dp50
S'ceo'
p51
g38
sg41
S'this is my startup!'
p52
sg40
I2
sg43
(lp53
S'Nice Startup!'
p54
aS'Heya ! comment ho rha hai !!!!! tingding ningn '
p55
aS'heya ek aur comment !! '
p56
asg36
(lp57
g38
ag39
assssS'4'
p58
(dp59
S'password'
p60
g58
sS'type'
p61
(dp62
S'4'
p63
(dp64
S'description'
p65
g63
sS'author'
p66
g63
sS'likes'
p67
I0
sS'comments'
p68
(lp69
sS'teammembers'
p70
(lp71
g63
assssS'avantika'
p72
(dp73
S'password'
p74
S'12345'
p75
sS'type'
p76
(dp77
S'project-redis'
p78
(dp79
S'description'
p80
S'best project'
p81
sS'author'
p82
S'avantika'
p83
sS'likes'
p84
I0
sS'comments'
p85
(lp86
sS'teammembers'
p87
(lp88
S'me'
p89
aS'myself'
p90
aS'i'
p91
assss.