(dp0
S'root'
p1
(dp2
S'password'
p3
S'12345'
p4
sS'type'
p5
(dp6
S'project'
p7
(dp8
S'description'
p9
S'this is my project!'
p10
sS'author'
p11
S'ram'
p12
sS'likes'
p13
I0
sS'comments'
p14
(lp15
S'Nice Project!'
p16
asS'teammembers'
p17
(lp18
g12
aS'shyam'
p19
assS'startup'
p20
(dp21
S'ceo'
p22
g12
sg17
(lp23
g12
ag19
asg9
S'this is my startup!'
p24
sg14
(lp25
S'Nice Startup!'
p26
asg13
I0
ssssS'5'
p27
(dp28
g3
S'5'
p29
sg5
(dp30
S'5'
p31
(dp32
S'teammembers'
p33
(lp34
g31
asS'likes'
p35
I0
sS'description'
p36
g31
sS'comments'
p37
(lp38
sS'author'
p39
g31
ssS'startupfun'
p40
(dp41
S'ceo'
p42
S'me'
p43
sS'teammembers'
p44
(lp45
S'me'
p46
aS'mohan'
p47
aS'shyam'
p48
asS'description'
p49
S'hello this is a very well startup'
p50
sS'comments'
p51
(lp52
sS'likes'
p53
I0
ssssS'4'
p54
(dp55
S'password'
p56
g54
sS'type'
p57
(dp58
S'4'
p59
(dp60
S'teammembers'
p61
(lp62
g59
asS'likes'
p63
I0
sS'description'
p64
g59
sS'comments'
p65
(lp66
sS'author'
p67
g59
ssss.