(dp0
S'mukesh'
p1
(dp2
S'skillset'
p3
(lp4
S'php'
p5
aS'html'
p6
aS'css'
p7
aS'ruby'
p8
asS'password'
p9
S'12345'
p10
sS'type'
p11
(dp12
S'startup-manmade'
p13
(dp14
S'description'
p15
S'best startup'
p16
sS'ceo'
p17
S'me'
p18
sS'comments'
p19
(lp20
S'Nice project mukesh !'
p21
asS'skills'
p22
(lp23
S'php'
p24
aS'html'
p25
asS'likes'
p26
I1
sS'teammembers'
p27
(lp28
S'me'
p29
aS'raghav'
p30
assssS'avantika'
p31
(dp32
S'password'
p33
S'12345'
p34
sS'type'
p35
(dp36
S'project-unicon'
p37
(dp38
S'teammembers'
p39
(lp40
S'avantika'
p41
asS'likes'
p42
I4
sS'description'
p43
S'hey this is an awesome project !'
p44
sS'comments'
p45
(lp46
sS'author'
p47
S'avantika'
p48
ssS'startup-monor'
p49
(dp50
S'description'
p51
S'best startup'
p52
sS'skills'
p53
(lp54
S'php'
p55
aS'django'
p56
asS'flag_intern'
p57
I1
sS'comments'
p58
(lp59
sS'ceo'
p60
S'avantika'
p61
sS'likes'
p62
I0
sS'applicant_request'
p63
(lp64
S'avantika'
p65
aS'ajay'
p66
asS'teammembers'
p67
(lp68
S'avantika'
p69
aS'ruksa'
p70
assS'startup-mannix'
p71
(dp72
S'description'
p73
S'best startup'
p74
sS'ceo'
p75
S'avantika'
p76
sS'comments'
p77
(lp78
sS'skills'
p79
(lp80
S'python'
p81
aS'django'
p82
asS'likes'
p83
I0
sS'teammembers'
p84
(lp85
S'avantika'
p86
aS'rupa'
p87
assssS'root'
p88
(dp89
S'password'
p90
S'12345'
p91
sS'type'
p92
(dp93
S'project'
p94
(dp95
S'teammembers'
p96
(lp97
S'ram'
p98
aS'shyam'
p99
asS'likes'
p100
I1
sS'description'
p101
S'this is my project!'
p102
sS'comments'
p103
(lp104
S'Nice Project!'
p105
asS'author'
p106
g98
ssS'startup'
p107
(dp108
S'ceo'
p109
g98
sg101
S'this is my startup!'
p110
sg100
I0
sg103
(lp111
S'Nice Startup!'
p112
aS'heya is working very fine !! uhuuuu !! '
p113
asg96
(lp114
g98
ag99
assssS'ajay'
p115
(dp116
S'batch'
p117
S'B1'
p118
sS'contactno'
p119
I9650995427
sS'skillset'
p120
(lp121
S'php'
p122
aS'python'
p123
asS'year'
p124
I1
sS'password'
p125
S'ajay123'
p126
sS'type'
p127
(dp128
ssS'soham'
p129
(dp130
S'batch'
p131
S'b2'
p132
sS'contactno'
p133
I987654321
sS'skillset'
p134
(lp135
S'php'
p136
aS'python'
p137
asS'year'
p138
I1
sS'password'
p139
S'12345'
p140
sS'type'
p141
(dp142
S'startup-fons'
p143
(dp144
S'description'
p145
S'best startup'
p146
sS'ceo'
p147
S'soham'
p148
sS'comments'
p149
(lp150
sS'skills'
p151
(lp152
S'django'
p153
aS'python'
p154
asS'likes'
p155
I0
sS'teammembers'
p156
(lp157
S'soham'
p158
aS'mohan'
p159
assssS'vijay'
p160
(dp161
S'batch'
p162
S'b2'
p163
sS'contactno'
p164
I987654321
sS'skillset'
p165
(lp166
S'python'
p167
aS'ruby'
p168
asS'year'
p169
I2
sS'password'
p170
S'vijay123'
p171
sS'type'
p172
(dp173
ssS'rahul'
p174
(dp175
S'password'
p176
S'rahul123'
p177
sS'type'
p178
(dp179
ss.