(dp0
S'root'
p1
(dp2
S'password'
p3
S'12345'
p4
sS'type'
p5
(dp6
S'project'
p7
(dp8
S'description'
p9
S'this is my project!'
p10
sS'author'
p11
S'ram'
p12
sS'likes'
p13
I1
sS'comments'
p14
(lp15
S'Nice Project!'
p16
aS'yo yo'
p17
asS'teammembers'
p18
(lp19
g12
aS'shyam'
p20
assS'startup'
p21
(dp22
S'ceo'
p23
g12
sg18
(lp24
g12
ag20
asg9
S'this is my startup!'
p25
sg14
(lp26
S'Nice Startup!'
p27
aS'Heya ! comment ho rha hai !!!!! tingding ningn '
p28
aS'heya ek aur comment !! '
p29
asg13
I2
ssssS'5'
p30
(dp31
g3
S'5'
p32
sg5
(dp33
S'5'
p34
(dp35
S'teammembers'
p36
(lp37
g34
asS'likes'
p38
I0
sS'description'
p39
g34
sS'comments'
p40
(lp41
sS'author'
p42
g34
ssS'startupfun'
p43
(dp44
S'ceo'
p45
S'me'
p46
sS'teammembers'
p47
(lp48
S'me'
p49
aS'mohan'
p50
aS'shyam'
p51
asS'description'
p52
S'hello this is a very well startup'
p53
sS'comments'
p54
(lp55
sS'likes'
p56
I0
ssssS'4'
p57
(dp58
S'password'
p59
g57
sS'type'
p60
(dp61
S'4'
p62
(dp63
S'teammembers'
p64
(lp65
g62
asS'likes'
p66
I0
sS'description'
p67
g62
sS'comments'
p68
(lp69
sS'author'
p70
g62
ssssS'avantika'
p71
(dp72
S'password'
p73
S'12345'
p74
sS'type'
p75
(dp76
S'project-redis'
p77
(dp78
S'teammembers'
p79
(lp80
S'me'
p81
aS'myself'
p82
aS'i'
p83
asS'likes'
p84
I0
sS'description'
p85
S'best project'
p86
sS'comments'
p87
(lp88
sS'author'
p89
S'avantika'
p90
ssss.